target datalayout = "e-m:e-p270:32:32-p271:32:32-p272:64:64-i64:64-i128:128-f80:128-n8:16:32:64-S128"
target triple = "x86_64-unknown-linux-gnu"

%struct.QCryptoBlockLUKSHeader = type { [6 x i8], i16, [32 x i8], [32 x i8], [32 x i8], i32, i32, [20 x i8], [32 x i8], i32, [40 x i8], [8 x %struct.QCryptoBlockLUKSKeySlot] }
%struct.QCryptoBlockLUKSKeySlot = type { i32, i32, [32 x i8], i32, i32 }
%struct.QCryptoBlock = type { i32, ptr, ptr, ptr, i64, i64, ptr, %struct.QemuMutex, i32, i64, i64, i64 }
%struct.QemuMutex = type { %union.pthread_mutex_t, i8 }
%union.pthread_mutex_t = type { %struct.__pthread_mutex_s }
%struct.__pthread_mutex_s = type { i32, i32, i32, i32, i32, i16, i16, %struct.__pthread_internal_list }
%struct.__pthread_internal_list = type { ptr, ptr }
%struct.QCryptoBlockLUKS = type { %struct.QCryptoBlockLUKSHeader, i32, i32, i32, i32, i32, i32, ptr }

@.str = private unnamed_addr constant [28 x i8] c"../qemu/crypto/block-luks.c\00", align 1
@.str.32 = private unnamed_addr constant [44 x i8] c"slot_idx < QCRYPTO_BLOCK_LUKS_NUM_KEY_SLOTS\00", align 1
@__PRETTY_FUNCTION__.qcrypto_block_luks_load_key = private unnamed_addr constant [121 x i8] c"int qcrypto_block_luks_load_key(QCryptoBlock *, size_t, const char *, uint8_t *, QCryptoBlockReadFunc, void *, Error **)\00", align 1

; Function Attrs: nounwind sspstrong uwtable
define internal void @glib_autoptr_clear_QCryptoCipher(ptr noundef %_ptr) #0 {
entry:
  %_ptr.addr = alloca ptr, align 8
  store ptr %_ptr, ptr %_ptr.addr, align 8
  %0 = load ptr, ptr %_ptr.addr, align 8
  %tobool = icmp ne ptr %0, null
  br i1 %tobool, label %if.then, label %if.end

if.then:                                          ; preds = %entry
  %1 = load ptr, ptr %_ptr.addr, align 8
  call void @qcrypto_cipher_free(ptr noundef %1)
  br label %if.end

if.end:                                           ; preds = %if.then, %entry
  ret void
}

; Function Attrs: nounwind sspstrong uwtable
define internal void @glib_autoptr_clear_QCryptoIVGen(ptr noundef %_ptr) #0 {
entry:
  %_ptr.addr = alloca ptr, align 8
  store ptr %_ptr, ptr %_ptr.addr, align 8
  %0 = load ptr, ptr %_ptr.addr, align 8
  %tobool = icmp ne ptr %0, null
  br i1 %tobool, label %if.then, label %if.end

if.then:                                          ; preds = %entry
  %1 = load ptr, ptr %_ptr.addr, align 8
  call void @qcrypto_ivgen_free(ptr noundef %1)
  br label %if.end

if.end:                                           ; preds = %if.then, %entry
  ret void
}

; Function Attrs: nounwind sspstrong uwtable
define internal void @g_autoptr_cleanup_generic_gfree(ptr noundef %p) #0 {
entry:
  %p.addr = alloca ptr, align 8
  %pp = alloca ptr, align 8
  store ptr %p, ptr %p.addr, align 8
  %0 = load ptr, ptr %p.addr, align 8
  store ptr %0, ptr %pp, align 8
  %1 = load ptr, ptr %pp, align 8
  %2 = load ptr, ptr %1, align 8
  call void @g_free(ptr noundef %2)
  ret void
}

; Function Attrs: nounwind sspstrong uwtable
define internal void @glib_autoptr_cleanup_QCryptoCipher(ptr noundef %_ptr) #0 {
entry:
  %_ptr.addr = alloca ptr, align 8
  store ptr %_ptr, ptr %_ptr.addr, align 8
  %0 = load ptr, ptr %_ptr.addr, align 8
  %1 = load ptr, ptr %0, align 8
  call void @glib_autoptr_clear_QCryptoCipher(ptr noundef %1)
  ret void
}

; Function Attrs: nounwind sspstrong uwtable
define internal void @glib_autoptr_cleanup_QCryptoIVGen(ptr noundef %_ptr) #0 {
entry:
  %_ptr.addr = alloca ptr, align 8
  store ptr %_ptr, ptr %_ptr.addr, align 8
  %0 = load ptr, ptr %_ptr.addr, align 8
  %1 = load ptr, ptr %0, align 8
  call void @glib_autoptr_clear_QCryptoIVGen(ptr noundef %1)
  ret void
}

; Function Attrs: nounwind sspstrong uwtable
define internal i32 @qcrypto_block_luks_load_key(ptr noundef %block, i64 noundef %slot_idx, ptr noundef %password, ptr noundef %masterkey, ptr noundef %readfunc, ptr noundef %opaque, ptr noundef %errp) #0 {
entry:
  %retval = alloca i32, align 4
  %block.addr = alloca ptr, align 8
  %slot_idx.addr = alloca i64, align 8
  %password.addr = alloca ptr, align 8
  %masterkey.addr = alloca ptr, align 8
  %readfunc.addr = alloca ptr, align 8
  %opaque.addr = alloca ptr, align 8
  %errp.addr = alloca ptr, align 8
  %luks = alloca ptr, align 8
  %slot = alloca ptr, align 8
  %splitkey = alloca ptr, align 8
  %splitkeylen = alloca i64, align 8
  %possiblekey = alloca ptr, align 8
  %rv = alloca i32, align 4
  %cipher = alloca ptr, align 8
  %keydigest = alloca [20 x i8], align 16
  %ivgen = alloca ptr, align 8
  %niv = alloca i64, align 8
  %cleanup.dest.slot = alloca i32, align 4
  store ptr %block, ptr %block.addr, align 8
  store i64 %slot_idx, ptr %slot_idx.addr, align 8
  store ptr %password, ptr %password.addr, align 8
  store ptr %masterkey, ptr %masterkey.addr, align 8
  store ptr %readfunc, ptr %readfunc.addr, align 8
  store ptr %opaque, ptr %opaque.addr, align 8
  store ptr %errp, ptr %errp.addr, align 8
  %0 = load ptr, ptr %block.addr, align 8
  %opaque1 = getelementptr inbounds %struct.QCryptoBlock, ptr %0, i32 0, i32 2
  %1 = load ptr, ptr %opaque1, align 8
  store ptr %1, ptr %luks, align 8
  store ptr null, ptr %splitkey, align 8
  store ptr null, ptr %possiblekey, align 8
  store ptr null, ptr %cipher, align 8
  store ptr null, ptr %ivgen, align 8
  %2 = load i64, ptr %slot_idx.addr, align 8
  %cmp = icmp ult i64 %2, 8
  br i1 %cmp, label %if.then, label %if.else

if.then:                                          ; preds = %entry
  br label %if.end

if.else:                                          ; preds = %entry
  call void @__assert_fail(ptr noundef @.str.32, ptr noundef @.str, i32 noundef 879, ptr noundef @__PRETTY_FUNCTION__.qcrypto_block_luks_load_key) #16
  unreachable

if.end:                                           ; preds = %if.then
  %3 = load ptr, ptr %luks, align 8
  %header = getelementptr inbounds %struct.QCryptoBlockLUKS, ptr %3, i32 0, i32 0
  %key_slots = getelementptr inbounds %struct.QCryptoBlockLUKSHeader, ptr %header, i32 0, i32 11
  %4 = load i64, ptr %slot_idx.addr, align 8
  %arrayidx = getelementptr [8 x %struct.QCryptoBlockLUKSKeySlot], ptr %key_slots, i64 0, i64 %4
  store ptr %arrayidx, ptr %slot, align 8
  %5 = load ptr, ptr %slot, align 8
  %active = getelementptr inbounds %struct.QCryptoBlockLUKSKeySlot, ptr %5, i32 0, i32 0
  %6 = load i32, ptr %active, align 4
  %cmp2 = icmp ne i32 %6, 11301363
  br i1 %cmp2, label %if.then3, label %if.end4

if.then3:                                         ; preds = %if.end
  store i32 0, ptr %retval, align 4
  store i32 1, ptr %cleanup.dest.slot, align 4
  br label %cleanup

if.end4:                                          ; preds = %if.end
  %7 = load ptr, ptr %luks, align 8
  %header5 = getelementptr inbounds %struct.QCryptoBlockLUKS, ptr %7, i32 0, i32 0
  %master_key_len = getelementptr inbounds %struct.QCryptoBlockLUKSHeader, ptr %header5, i32 0, i32 6
  %8 = load i32, ptr %master_key_len, align 4
  %9 = load ptr, ptr %slot, align 8
  %stripes = getelementptr inbounds %struct.QCryptoBlockLUKSKeySlot, ptr %9, i32 0, i32 4
  %10 = load i32, ptr %stripes, align 4
  %mul = mul i32 %8, %10
  %conv = zext i32 %mul to i64
  store i64 %conv, ptr %splitkeylen, align 8
  %11 = load i64, ptr %splitkeylen, align 8
  %call = call noalias ptr @g_malloc0_n(i64 noundef %11, i64 noundef 1) #11
  store ptr %call, ptr %splitkey, align 8
  %12 = load ptr, ptr %luks, align 8
  %header6 = getelementptr inbounds %struct.QCryptoBlockLUKS, ptr %12, i32 0, i32 0
  %master_key_len7 = getelementptr inbounds %struct.QCryptoBlockLUKSHeader, ptr %header6, i32 0, i32 6
  %13 = load i32, ptr %master_key_len7, align 4
  %conv8 = zext i32 %13 to i64
  %call9 = call noalias ptr @g_malloc0_n(i64 noundef %conv8, i64 noundef 1) #11
  store ptr %call9, ptr %possiblekey, align 8
  %14 = load ptr, ptr %luks, align 8
  %hash_alg = getelementptr inbounds %struct.QCryptoBlockLUKS, ptr %14, i32 0, i32 6
  %15 = load i32, ptr %hash_alg, align 4
  %16 = load ptr, ptr %password.addr, align 8
  %17 = load ptr, ptr %password.addr, align 8
  %call10 = call i64 @strlen(ptr noundef %17) #12
  %18 = load ptr, ptr %slot, align 8
  %salt = getelementptr inbounds %struct.QCryptoBlockLUKSKeySlot, ptr %18, i32 0, i32 2
  %arraydecay = getelementptr inbounds [32 x i8], ptr %salt, i64 0, i64 0
  %19 = load ptr, ptr %slot, align 8
  %iterations = getelementptr inbounds %struct.QCryptoBlockLUKSKeySlot, ptr %19, i32 0, i32 1
  %20 = load i32, ptr %iterations, align 4
  %conv11 = zext i32 %20 to i64
  %21 = load ptr, ptr %possiblekey, align 8
  %22 = load ptr, ptr %luks, align 8
  %header12 = getelementptr inbounds %struct.QCryptoBlockLUKS, ptr %22, i32 0, i32 0
  %master_key_len13 = getelementptr inbounds %struct.QCryptoBlockLUKSHeader, ptr %header12, i32 0, i32 6
  %23 = load i32, ptr %master_key_len13, align 4
  %conv14 = zext i32 %23 to i64
  %24 = load ptr, ptr %errp.addr, align 8
  %call15 = call i32 @qcrypto_pbkdf2(i32 noundef %15, ptr noundef %16, i64 noundef %call10, ptr noundef %arraydecay, i64 noundef 32, i64 noundef %conv11, ptr noundef %21, i64 noundef %conv14, ptr noundef %24)
  %cmp16 = icmp slt i32 %call15, 0
  br i1 %cmp16, label %if.then18, label %if.end19

if.then18:                                        ; preds = %if.end4
  store i32 -1, ptr %retval, align 4
  store i32 1, ptr %cleanup.dest.slot, align 4
  br label %cleanup

if.end19:                                         ; preds = %if.end4
  %25 = load ptr, ptr %readfunc.addr, align 8
  %26 = load ptr, ptr %block.addr, align 8
  %27 = load ptr, ptr %slot, align 8
  %key_offset_sector = getelementptr inbounds %struct.QCryptoBlockLUKSKeySlot, ptr %27, i32 0, i32 3
  %28 = load i32, ptr %key_offset_sector, align 4
  %conv20 = zext i32 %28 to i64
  %mul21 = mul i64 %conv20, 512
  %29 = load ptr, ptr %splitkey, align 8
  %30 = load i64, ptr %splitkeylen, align 8
  %31 = load ptr, ptr %opaque.addr, align 8
  %32 = load ptr, ptr %errp.addr, align 8
  %call22 = call i32 %25(ptr noundef %26, i64 noundef %mul21, ptr noundef %29, i64 noundef %30, ptr noundef %31, ptr noundef %32)
  store i32 %call22, ptr %rv, align 4
  %33 = load i32, ptr %rv, align 4
  %cmp23 = icmp slt i32 %33, 0
  br i1 %cmp23, label %if.then25, label %if.end26

if.then25:                                        ; preds = %if.end19
  store i32 -1, ptr %retval, align 4
  store i32 1, ptr %cleanup.dest.slot, align 4
  br label %cleanup

if.end26:                                         ; preds = %if.end19
  %34 = load ptr, ptr %luks, align 8
  %cipher_alg = getelementptr inbounds %struct.QCryptoBlockLUKS, ptr %34, i32 0, i32 1
  %35 = load i32, ptr %cipher_alg, align 8
  %36 = load ptr, ptr %luks, align 8
  %cipher_mode = getelementptr inbounds %struct.QCryptoBlockLUKS, ptr %36, i32 0, i32 2
  %37 = load i32, ptr %cipher_mode, align 4
  %38 = load ptr, ptr %possiblekey, align 8
  %39 = load ptr, ptr %luks, align 8
  %header27 = getelementptr inbounds %struct.QCryptoBlockLUKS, ptr %39, i32 0, i32 0
  %master_key_len28 = getelementptr inbounds %struct.QCryptoBlockLUKSHeader, ptr %header27, i32 0, i32 6
  %40 = load i32, ptr %master_key_len28, align 4
  %conv29 = zext i32 %40 to i64
  %41 = load ptr, ptr %errp.addr, align 8
  %call30 = call ptr @qcrypto_cipher_new(i32 noundef %35, i32 noundef %37, ptr noundef %38, i64 noundef %conv29, ptr noundef %41)
  store ptr %call30, ptr %cipher, align 8
  %42 = load ptr, ptr %cipher, align 8
  %tobool = icmp ne ptr %42, null
  br i1 %tobool, label %if.end32, label %if.then31

if.then31:                                        ; preds = %if.end26
  store i32 -1, ptr %retval, align 4
  store i32 1, ptr %cleanup.dest.slot, align 4
  br label %cleanup

if.end32:                                         ; preds = %if.end26
  %43 = load ptr, ptr %luks, align 8
  %cipher_alg33 = getelementptr inbounds %struct.QCryptoBlockLUKS, ptr %43, i32 0, i32 1
  %44 = load i32, ptr %cipher_alg33, align 8
  %45 = load ptr, ptr %luks, align 8
  %cipher_mode34 = getelementptr inbounds %struct.QCryptoBlockLUKS, ptr %45, i32 0, i32 2
  %46 = load i32, ptr %cipher_mode34, align 4
  %call35 = call i64 @qcrypto_cipher_get_iv_len(i32 noundef %44, i32 noundef %46)
  store i64 %call35, ptr %niv, align 8
  %47 = load ptr, ptr %luks, align 8
  %ivgen_alg = getelementptr inbounds %struct.QCryptoBlockLUKS, ptr %47, i32 0, i32 3
  %48 = load i32, ptr %ivgen_alg, align 8
  %49 = load ptr, ptr %luks, align 8
  %ivgen_cipher_alg = getelementptr inbounds %struct.QCryptoBlockLUKS, ptr %49, i32 0, i32 5
  %50 = load i32, ptr %ivgen_cipher_alg, align 8
  %51 = load ptr, ptr %luks, align 8
  %ivgen_hash_alg = getelementptr inbounds %struct.QCryptoBlockLUKS, ptr %51, i32 0, i32 4
  %52 = load i32, ptr %ivgen_hash_alg, align 4
  %53 = load ptr, ptr %possiblekey, align 8
  %54 = load ptr, ptr %luks, align 8
  %header36 = getelementptr inbounds %struct.QCryptoBlockLUKS, ptr %54, i32 0, i32 0
  %master_key_len37 = getelementptr inbounds %struct.QCryptoBlockLUKSHeader, ptr %header36, i32 0, i32 6
  %55 = load i32, ptr %master_key_len37, align 4
  %conv38 = zext i32 %55 to i64
  %56 = load ptr, ptr %errp.addr, align 8
  %call39 = call ptr @qcrypto_ivgen_new(i32 noundef %48, i32 noundef %50, i32 noundef %52, ptr noundef %53, i64 noundef %conv38, ptr noundef %56)
  store ptr %call39, ptr %ivgen, align 8
  %57 = load ptr, ptr %ivgen, align 8
  %tobool40 = icmp ne ptr %57, null
  br i1 %tobool40, label %if.end42, label %if.then41

if.then41:                                        ; preds = %if.end32
  store i32 -1, ptr %retval, align 4
  store i32 1, ptr %cleanup.dest.slot, align 4
  br label %cleanup

if.end42:                                         ; preds = %if.end32
  %58 = load ptr, ptr %cipher, align 8
  %59 = load i64, ptr %niv, align 8
  %60 = load ptr, ptr %ivgen, align 8
  %61 = load ptr, ptr %splitkey, align 8
  %62 = load i64, ptr %splitkeylen, align 8
  %63 = load ptr, ptr %errp.addr, align 8
  %call43 = call i32 @qcrypto_block_cipher_decrypt_helper(ptr noundef %58, i64 noundef %59, ptr noundef %60, i32 noundef 512, i64 noundef 0, ptr noundef %61, i64 noundef %62, ptr noundef %63)
  %cmp44 = icmp slt i32 %call43, 0
  br i1 %cmp44, label %if.then46, label %if.end47

if.then46:                                        ; preds = %if.end42
  store i32 -1, ptr %retval, align 4
  store i32 1, ptr %cleanup.dest.slot, align 4
  br label %cleanup

if.end47:                                         ; preds = %if.end42
  %64 = load ptr, ptr %luks, align 8
  %hash_alg48 = getelementptr inbounds %struct.QCryptoBlockLUKS, ptr %64, i32 0, i32 6
  %65 = load i32, ptr %hash_alg48, align 4
  %66 = load ptr, ptr %luks, align 8
  %header49 = getelementptr inbounds %struct.QCryptoBlockLUKS, ptr %66, i32 0, i32 0
  %master_key_len50 = getelementptr inbounds %struct.QCryptoBlockLUKSHeader, ptr %header49, i32 0, i32 6
  %67 = load i32, ptr %master_key_len50, align 4
  %conv51 = zext i32 %67 to i64
  %68 = load ptr, ptr %slot, align 8
  %stripes52 = getelementptr inbounds %struct.QCryptoBlockLUKSKeySlot, ptr %68, i32 0, i32 4
  %69 = load i32, ptr %stripes52, align 4
  %70 = load ptr, ptr %splitkey, align 8
  %71 = load ptr, ptr %masterkey.addr, align 8
  %72 = load ptr, ptr %errp.addr, align 8
  %call53 = call i32 @qcrypto_afsplit_decode(i32 noundef %65, i64 noundef %conv51, i32 noundef %69, ptr noundef %70, ptr noundef %71, ptr noundef %72)
  %cmp54 = icmp slt i32 %call53, 0
  br i1 %cmp54, label %if.then56, label %if.end57

if.then56:                                        ; preds = %if.end47
  store i32 -1, ptr %retval, align 4
  store i32 1, ptr %cleanup.dest.slot, align 4
  br label %cleanup

if.end57:                                         ; preds = %if.end47
  %73 = load ptr, ptr %luks, align 8
  %hash_alg58 = getelementptr inbounds %struct.QCryptoBlockLUKS, ptr %73, i32 0, i32 6
  %74 = load i32, ptr %hash_alg58, align 4
  %75 = load ptr, ptr %masterkey.addr, align 8
  %76 = load ptr, ptr %luks, align 8
  %header59 = getelementptr inbounds %struct.QCryptoBlockLUKS, ptr %76, i32 0, i32 0
  %master_key_len60 = getelementptr inbounds %struct.QCryptoBlockLUKSHeader, ptr %header59, i32 0, i32 6
  %77 = load i32, ptr %master_key_len60, align 4
  %conv61 = zext i32 %77 to i64
  %78 = load ptr, ptr %luks, align 8
  %header62 = getelementptr inbounds %struct.QCryptoBlockLUKS, ptr %78, i32 0, i32 0
  %master_key_salt = getelementptr inbounds %struct.QCryptoBlockLUKSHeader, ptr %header62, i32 0, i32 8
  %arraydecay63 = getelementptr inbounds [32 x i8], ptr %master_key_salt, i64 0, i64 0
  %79 = load ptr, ptr %luks, align 8
  %header64 = getelementptr inbounds %struct.QCryptoBlockLUKS, ptr %79, i32 0, i32 0
  %master_key_iterations = getelementptr inbounds %struct.QCryptoBlockLUKSHeader, ptr %header64, i32 0, i32 9
  %80 = load i32, ptr %master_key_iterations, align 4
  %conv65 = zext i32 %80 to i64
  %arraydecay66 = getelementptr inbounds [20 x i8], ptr %keydigest, i64 0, i64 0
  %81 = load ptr, ptr %errp.addr, align 8
  %call67 = call i32 @qcrypto_pbkdf2(i32 noundef %74, ptr noundef %75, i64 noundef %conv61, ptr noundef %arraydecay63, i64 noundef 32, i64 noundef %conv65, ptr noundef %arraydecay66, i64 noundef 20, ptr noundef %81)
  %cmp68 = icmp slt i32 %call67, 0
  br i1 %cmp68, label %if.then70, label %if.end71

if.then70:                                        ; preds = %if.end57
  store i32 -1, ptr %retval, align 4
  store i32 1, ptr %cleanup.dest.slot, align 4
  br label %cleanup

if.end71:                                         ; preds = %if.end57
  %arraydecay72 = getelementptr inbounds [20 x i8], ptr %keydigest, i64 0, i64 0
  %82 = load ptr, ptr %luks, align 8
  %header73 = getelementptr inbounds %struct.QCryptoBlockLUKS, ptr %82, i32 0, i32 0
  %master_key_digest = getelementptr inbounds %struct.QCryptoBlockLUKSHeader, ptr %header73, i32 0, i32 7
  %arraydecay74 = getelementptr inbounds [20 x i8], ptr %master_key_digest, i64 0, i64 0
  %call75 = call i32 @memcmp(ptr noundef %arraydecay72, ptr noundef %arraydecay74, i64 noundef 20) #12
  %cmp76 = icmp eq i32 %call75, 0
  br i1 %cmp76, label %if.then78, label %if.end79

if.then78:                                        ; preds = %if.end71
  store i32 1, ptr %retval, align 4
  store i32 1, ptr %cleanup.dest.slot, align 4
  br label %cleanup

if.end79:                                         ; preds = %if.end71
  store i32 0, ptr %retval, align 4
  store i32 1, ptr %cleanup.dest.slot, align 4
  br label %cleanup

cleanup:                                          ; preds = %if.end79, %if.then78, %if.then70, %if.then56, %if.then46, %if.then41, %if.then31, %if.then25, %if.then18, %if.then3
  call void @glib_autoptr_cleanup_QCryptoIVGen(ptr noundef %ivgen)
  call void @glib_autoptr_cleanup_QCryptoCipher(ptr noundef %cipher)
  call void @g_autoptr_cleanup_generic_gfree(ptr noundef %possiblekey)
  call void @g_autoptr_cleanup_generic_gfree(ptr noundef %splitkey)
  %83 = load i32, ptr %retval, align 4
  ret i32 %83
}