; Function Attrs: nounwind sspstrong uwtable
define internal fastcc range(i32 -1, 2) i32 @qcrypto_block_luks_load_key(ptr noundef %block, i64 noundef range(i64 0, 8) %slot_idx, ptr noundef %password, ptr noundef %masterkey, ptr noundef readonly captures(none) %readfunc, ptr noundef %opaque, ptr noundef %errp) unnamed_addr #1 {
entry:
  %keydigest = alloca [20 x i8], align 16
  %opaque1 = getelementptr inbounds nuw i8, ptr %block, i64 16
  %0 = load ptr, ptr %opaque1, align 8
  %key_slots = getelementptr inbounds nuw i8, ptr %0, i64 208
  %arrayidx = getelementptr [8 x %struct.QCryptoBlockLUKSKeySlot], ptr %key_slots, i64 0, i64 %slot_idx
  %1 = load i32, ptr %arrayidx, align 4
  %cmp2.not = icmp eq i32 %1, 11301363
  br i1 %cmp2.not, label %if.end4, label %glib_autoptr_cleanup_QCryptoCipher.exit

if.end4:                                          ; preds = %entry
  %master_key_len = getelementptr inbounds nuw i8, ptr %0, i64 108
  %2 = load i32, ptr %master_key_len, align 4
  %stripes = getelementptr inbounds nuw i8, ptr %arrayidx, i64 44
  %3 = load i32, ptr %stripes, align 4
  %mul = mul i32 %3, %2
  %conv = zext i32 %mul to i64
  %call = tail call noalias ptr @g_malloc0_n(i64 noundef %conv, i64 noundef 1) #17
  %4 = load i32, ptr %master_key_len, align 4
  %conv8 = zext i32 %4 to i64
  %call9 = tail call noalias ptr @g_malloc0_n(i64 noundef %conv8, i64 noundef 1) #17
  %hash_alg = getelementptr inbounds nuw i8, ptr %0, i64 612
  %5 = load i32, ptr %hash_alg, align 4
  %call10 = tail call i64 @strlen(ptr noundef nonnull dereferenceable(1) %password) #18
  %salt = getelementptr inbounds nuw i8, ptr %arrayidx, i64 8
  %iterations = getelementptr inbounds nuw i8, ptr %arrayidx, i64 4
  %6 = load i32, ptr %iterations, align 4
  %conv11 = zext i32 %6 to i64
  %7 = load i32, ptr %master_key_len, align 4
  %conv14 = zext i32 %7 to i64
  %call15 = tail call i32 @qcrypto_pbkdf2(i32 noundef %5, ptr noundef nonnull %password, i64 noundef %call10, ptr noundef nonnull %salt, i64 noundef 32, i64 noundef %conv11, ptr noundef %call9, i64 noundef %conv14, ptr noundef %errp) #16
  %cmp16 = icmp slt i32 %call15, 0
  br i1 %cmp16, label %glib_autoptr_cleanup_QCryptoCipher.exit, label %if.end19

if.end19:                                         ; preds = %if.end4
  %key_offset_sector = getelementptr inbounds nuw i8, ptr %arrayidx, i64 40
  %8 = load i32, ptr %key_offset_sector, align 4
  %conv20 = zext i32 %8 to i64
  %mul21 = shl nuw nsw i64 %conv20, 9
  %call22 = tail call i32 %readfunc(ptr noundef nonnull %block, i64 noundef %mul21, ptr noundef %call, i64 noundef %conv, ptr noundef %opaque, ptr noundef %errp) #16
  %cmp23 = icmp slt i32 %call22, 0
  br i1 %cmp23, label %glib_autoptr_cleanup_QCryptoCipher.exit, label %if.end26

if.end26:                                         ; preds = %if.end19
  %cipher_alg = getelementptr inbounds nuw i8, ptr %0, i64 592
  %9 = load i32, ptr %cipher_alg, align 8
  %cipher_mode = getelementptr inbounds nuw i8, ptr %0, i64 596
  %10 = load i32, ptr %cipher_mode, align 4
  %11 = load i32, ptr %master_key_len, align 4
  %conv29 = zext i32 %11 to i64
  %call30 = tail call ptr @qcrypto_cipher_new(i32 noundef %9, i32 noundef %10, ptr noundef %call9, i64 noundef %conv29, ptr noundef %errp) #16
  %tobool.not = icmp eq ptr %call30, null
  br i1 %tobool.not, label %glib_autoptr_cleanup_QCryptoCipher.exit, label %if.end32

if.end32:                                         ; preds = %if.end26
  %12 = load i32, ptr %cipher_alg, align 8
  %13 = load i32, ptr %cipher_mode, align 4
  %call35 = tail call i64 @qcrypto_cipher_get_iv_len(i32 noundef %12, i32 noundef %13) #16
  %ivgen_alg = getelementptr inbounds nuw i8, ptr %0, i64 600
  %14 = load i32, ptr %ivgen_alg, align 8
  %ivgen_cipher_alg = getelementptr inbounds nuw i8, ptr %0, i64 608
  %15 = load i32, ptr %ivgen_cipher_alg, align 8
  %ivgen_hash_alg = getelementptr inbounds nuw i8, ptr %0, i64 604
  %16 = load i32, ptr %ivgen_hash_alg, align 4
  %17 = load i32, ptr %master_key_len, align 4
  %conv38 = zext i32 %17 to i64
  %call39 = tail call ptr @qcrypto_ivgen_new(i32 noundef %14, i32 noundef %15, i32 noundef %16, ptr noundef %call9, i64 noundef %conv38, ptr noundef %errp) #16
  %tobool40.not = icmp eq ptr %call39, null
  br i1 %tobool40.not, label %if.then.i.i39, label %if.end42

if.end42:                                         ; preds = %if.end32
  %call43 = tail call i32 @qcrypto_block_cipher_decrypt_helper(ptr noundef nonnull %call30, i64 noundef %call35, ptr noundef nonnull %call39, i32 noundef 512, i64 noundef 0, ptr noundef %call, i64 noundef %conv, ptr noundef %errp) #16
  %cmp44 = icmp slt i32 %call43, 0
  br i1 %cmp44, label %glib_autoptr_cleanup_QCryptoIVGen.exit.thread, label %if.end47

if.end47:                                         ; preds = %if.end42
  %18 = load i32, ptr %hash_alg, align 4
  %19 = load i32, ptr %master_key_len, align 4
  %conv51 = zext i32 %19 to i64
  %20 = load i32, ptr %stripes, align 4
  %call53 = tail call i32 @qcrypto_afsplit_decode(i32 noundef %18, i64 noundef %conv51, i32 noundef %20, ptr noundef %call, ptr noundef %masterkey, ptr noundef %errp) #16
  %cmp54 = icmp slt i32 %call53, 0
  br i1 %cmp54, label %glib_autoptr_cleanup_QCryptoIVGen.exit.thread, label %if.end57

if.end57:                                         ; preds = %if.end47
  %21 = load i32, ptr %hash_alg, align 4
  %22 = load i32, ptr %master_key_len, align 4
  %conv61 = zext i32 %22 to i64
  %master_key_salt = getelementptr inbounds nuw i8, ptr %0, i64 132
  %master_key_iterations = getelementptr inbounds nuw i8, ptr %0, i64 164
  %23 = load i32, ptr %master_key_iterations, align 4
  %conv65 = zext i32 %23 to i64
  %call67 = call i32 @qcrypto_pbkdf2(i32 noundef %21, ptr noundef %masterkey, i64 noundef %conv61, ptr noundef nonnull %master_key_salt, i64 noundef 32, i64 noundef %conv65, ptr noundef nonnull %keydigest, i64 noundef 20, ptr noundef %errp) #16
  %cmp68 = icmp slt i32 %call67, 0
  br i1 %cmp68, label %glib_autoptr_cleanup_QCryptoIVGen.exit.thread, label %if.end71

if.end71:                                         ; preds = %if.end57
  %master_key_digest = getelementptr inbounds nuw i8, ptr %0, i64 112
  %bcmp = call i32 @bcmp(ptr noundef nonnull dereferenceable(20) %keydigest, ptr noundef nonnull dereferenceable(20) %master_key_digest, i64 20)
  %cmp76 = icmp eq i32 %bcmp, 0
  %. = zext i1 %cmp76 to i32
  br label %glib_autoptr_cleanup_QCryptoIVGen.exit.thread

glib_autoptr_cleanup_QCryptoIVGen.exit.thread:    ; preds = %if.end71, %if.end57, %if.end47, %if.end42
  %retval.0 = phi i32 [ -1, %if.end42 ], [ -1, %if.end47 ], [ -1, %if.end57 ], [ %., %if.end71 ]
  call void @qcrypto_ivgen_free(ptr noundef nonnull %call39) #16
  br label %if.then.i.i39

if.then.i.i39:                                    ; preds = %if.end32, %glib_autoptr_cleanup_QCryptoIVGen.exit.thread
  %retval.05258 = phi i32 [ %retval.0, %glib_autoptr_cleanup_QCryptoIVGen.exit.thread ], [ -1, %if.end32 ]
  call void @qcrypto_cipher_free(ptr noundef nonnull %call30) #16
  br label %glib_autoptr_cleanup_QCryptoCipher.exit

glib_autoptr_cleanup_QCryptoCipher.exit:          ; preds = %if.end4, %if.end19, %if.end26, %entry, %if.then.i.i39
  %splitkey.04964 = phi ptr [ %call, %if.then.i.i39 ], [ %call, %if.end4 ], [ %call, %if.end19 ], [ %call, %if.end26 ], [ null, %entry ]
  %possiblekey.05062 = phi ptr [ %call9, %if.then.i.i39 ], [ %call9, %if.end4 ], [ %call9, %if.end19 ], [ %call9, %if.end26 ], [ null, %entry ]
  %retval.05259 = phi i32 [ %retval.05258, %if.then.i.i39 ], [ -1, %if.end4 ], [ -1, %if.end19 ], [ -1, %if.end26 ], [ 0, %entry ]
  call void @g_free(ptr noundef %possiblekey.05062) #16
  call void @g_free(ptr noundef %splitkey.04964) #16
  ret i32 %retval.05259
}